target datalayout = "e-m:e-p270:32:32-p271:32:32-p272:64:64-i64:64-i128:128-f80:128-n8:16:32:64-S128"
target triple = "x86_64-pc-linux-gnu"

%struct.bitstream = type { i64, i64, ptr, ptr, ptr }

; Function Attrs: nounwind uwtable
define void @stream_rewind(ptr noundef %0) #0 {
  %2 = alloca ptr, align 8
  store ptr %0, ptr %2, align 8
  %3 = load ptr, ptr %2, align 8
  %4 = getelementptr inbounds %struct.bitstream, ptr %3, i32 0, i32 3
  %5 = load ptr, ptr %4, align 8
  %6 = load ptr, ptr %2, align 8
  %7 = getelementptr inbounds %struct.bitstream, ptr %6, i32 0, i32 2
  store ptr %5, ptr %7, align 8
  %8 = load ptr, ptr %2, align 8
  %9 = getelementptr inbounds %struct.bitstream, ptr %8, i32 0, i32 1
  store i64 0, ptr %9, align 8
  %10 = load ptr, ptr %2, align 8
  %11 = getelementptr inbounds %struct.bitstream, ptr %10, i32 0, i32 0
  store i64 0, ptr %11, align 8
  ret void
}

; Function Attrs: nounwind uwtable
define ptr @stream_open(ptr noundef %0, i64 noundef %1) #0 {
  %3 = alloca ptr, align 8
  %4 = alloca i64, align 8
  %5 = alloca ptr, align 8
  store ptr %0, ptr %3, align 8
  store i64 %1, ptr %4, align 8
  %6 = call noalias ptr @malloc(i64 noundef 40) #4
  store ptr %6, ptr %5, align 8
  %7 = load ptr, ptr %5, align 8
  %8 = icmp ne ptr %7, null
  br i1 %8, label %9, label %22

9:                                                ; preds = %2
  %10 = load ptr, ptr %3, align 8
  %11 = load ptr, ptr %5, align 8
  %12 = getelementptr inbounds %struct.bitstream, ptr %11, i32 0, i32 3
  store ptr %10, ptr %12, align 8
  %13 = load ptr, ptr %5, align 8
  %14 = getelementptr inbounds %struct.bitstream, ptr %13, i32 0, i32 3
  %15 = load ptr, ptr %14, align 8
  %16 = load i64, ptr %4, align 8
  %17 = udiv i64 %16, 8
  %18 = getelementptr inbounds i64, ptr %15, i64 %17
  %19 = load ptr, ptr %5, align 8
  %20 = getelementptr inbounds %struct.bitstream, ptr %19, i32 0, i32 4
  store ptr %18, ptr %20, align 8
  %21 = load ptr, ptr %5, align 8
  call void @stream_rewind(ptr noundef %21)
  br label %22

22:                                               ; preds = %9, %2
  %23 = load ptr, ptr %5, align 8
  ret ptr %23
}