; Function Attrs: mustprogress nofree nounwind willreturn memory(write, argmem: none, inaccessiblemem: readwrite) uwtable
define noalias noundef ptr @stream_open(ptr noundef %0, i64 noundef %1) local_unnamed_addr #7 {
  %3 = tail call noalias dereferenceable_or_null(40) ptr @malloc(i64 noundef 40) #14
  %.not = icmp eq ptr %3, null
  br i1 %.not, label %10, label %4

4:                                                ; preds = %2
  %5 = getelementptr inbounds nuw i8, ptr %3, i64 24
  store ptr %0, ptr %5, align 8
  %6 = lshr i64 %1, 3
  %7 = getelementptr inbounds nuw i64, ptr %0, i64 %6
  %8 = getelementptr inbounds nuw i8, ptr %3, i64 32
  store ptr %7, ptr %8, align 8
  %9 = getelementptr inbounds nuw i8, ptr %3, i64 16
  store ptr %0, ptr %9, align 8
  tail call void @llvm.memset.p0.i64(ptr noundef nonnull align 8 dereferenceable(16) %3, i8 0, i64 16, i1 false)
  br label %10

10:                                               ; preds = %4, %2
  ret ptr %3
}